; Function Attrs: mustprogress uwtable
define void @_Z32ulocimp_toBcpTypeWithFallback_77St17basic_string_viewIcSt11char_traitsIcEES2_(ptr dead_on_unwind noalias writable writeonly sret(%"class.std::optional.30") align 8 captures(none) initializes((0, 17)) %0, i64 %1, ptr %2, i64 %3, ptr %4) local_unnamed_addr #1 personality ptr @__gxx_personality_v0 {
  %6 = alloca %"class.std::optional.30", align 8
  call void @llvm.lifetime.start.p0(i64 24, ptr nonnull %6) #20
  call void @_Z20ulocimp_toBcpType_77St17basic_string_viewIcSt11char_traitsIcEES2_(ptr dead_on_unwind nonnull writable sret(%"class.std::optional.30") align 8 %6, i64 %1, ptr %2, i64 %3, ptr %4)
  %7 = getelementptr inbounds nuw i8, ptr %6, i64 16
  %8 = load i8, ptr %7, align 8, !tbaa !141, !range !74, !noundef !75
  %9 = trunc nuw i8 %8 to i1
  br i1 %9, label %15, label %10

10:                                               ; preds = %5
  %11 = trunc i64 %3 to i32
  %12 = call noundef zeroext i1 @_Z28ultag_isUnicodeLocaleType_77PKci(ptr noundef %4, i32 noundef %11)
  br i1 %12, label %13, label %15

13:                                               ; preds = %10
  store i64 %3, ptr %0, align 8, !tbaa !143
  %.sroa.3.0..sroa_idx = getelementptr inbounds nuw i8, ptr %0, i64 8
  store ptr %4, ptr %.sroa.3.0..sroa_idx, align 8, !tbaa !56
  %14 = getelementptr inbounds nuw i8, ptr %0, i64 16
  store i8 1, ptr %14, align 8, !tbaa !141
  br label %16

15:                                               ; preds = %10, %5
  call void @llvm.memcpy.p0.p0.i64(ptr noundef nonnull align 8 dereferenceable(24) %0, ptr noundef nonnull align 8 dereferenceable(24) %6, i64 24, i1 false)
  br label %16

16:                                               ; preds = %15, %13
  call void @llvm.lifetime.end.p0(i64 24, ptr nonnull %6) #20
  ret void
}